; ModuleID = '28/1722.c'
source_filename = "28/1722.c"
target datalayout = "e-m:e-p270:32:32-p271:32:32-p272:64:64-i64:64-f80:128-n8:16:32:64-S128"
target triple = "x86_64-pc-linux-gnu"

@.str = private unnamed_addr constant [4 x i8] c"%d,\00", align 1
@.str.1 = private unnamed_addr constant [3 x i8] c"%d\00", align 1

; Function Attrs: noinline nounwind uwtable
define dso_local i32 @main() #0 {
  %1 = alloca i32, align 4
  %2 = alloca [10000 x i8], align 16
  %3 = alloca i32, align 4
  %4 = alloca i32, align 4
  %5 = alloca i32, align 4
  %6 = alloca [1000 x i32], align 16
  %7 = alloca i8*, align 8
  store i32 0, i32* %1, align 4
  store i32 0, i32* %4, align 4
  store i32 0, i32* %5, align 4
  %8 = bitcast [1000 x i32]* %6 to i8*
  call void @llvm.memset.p0i8.i64(i8* align 16 %8, i8 0, i64 4000, i1 false)
  %9 = getelementptr inbounds [10000 x i8], [10000 x i8]* %2, i64 0, i64 0
  %10 = call i32 (i8*, ...) bitcast (i32 (...)* @gets to i32 (i8*, ...)*)(i8* %9)
  %11 = getelementptr inbounds [10000 x i8], [10000 x i8]* %2, i64 0, i64 0
  store i8* %11, i8** %7, align 8
  br label %12

12:                                               ; preds = %45, %0
  %13 = load i8*, i8** %7, align 8
  %14 = load i8, i8* %13, align 1
  %15 = sext i8 %14 to i32
  %16 = icmp ne i32 %15, 0
  br i1 %16, label %17, label %48

17:                                               ; preds = %12
  %18 = load i8*, i8** %7, align 8
  %19 = load i8, i8* %18, align 1
  %20 = sext i8 %19 to i32
  %21 = icmp ne i32 %20, 32
  br i1 %21, label %22, label %44

22:                                               ; preds = %17
  %23 = load i32, i32* %4, align 4
  %24 = add nsw i32 %23, 1
  store i32 %24, i32* %4, align 4
  %25 = load i8*, i8** %7, align 8
  %26 = getelementptr inbounds i8, i8* %25, i64 1
  %27 = load i8, i8* %26, align 1
  %28 = sext i8 %27 to i32
  %29 = icmp eq i32 %28, 32
  br i1 %29, label %36, label %30

30:                                               ; preds = %22
  %31 = load i8*, i8** %7, align 8
  %32 = getelementptr inbounds i8, i8* %31, i64 1
  %33 = load i8, i8* %32, align 1
  %34 = sext i8 %33 to i32
  %35 = icmp eq i32 %34, 0
  br i1 %35, label %36, label %43

36:                                               ; preds = %30, %22
  %37 = load i32, i32* %4, align 4
  %38 = load i32, i32* %5, align 4
  %39 = sext i32 %38 to i64
  %40 = getelementptr inbounds [1000 x i32], [1000 x i32]* %6, i64 0, i64 %39
  store i32 %37, i32* %40, align 4
  store i32 0, i32* %4, align 4
  %41 = load i32, i32* %5, align 4
  %42 = add nsw i32 %41, 1
  store i32 %42, i32* %5, align 4
  br label %43

43:                                               ; preds = %36, %30
  br label %44

44:                                               ; preds = %43, %17
  br label %45

45:                                               ; preds = %44
  %46 = load i8*, i8** %7, align 8
  %47 = getelementptr inbounds i8, i8* %46, i32 1
  store i8* %47, i8** %7, align 8
  br label %12

48:                                               ; preds = %12
  store i32 0, i32* %3, align 4
  br label %49

49:                                               ; preds = %91, %48
  %50 = load i32, i32* %3, align 4
  %51 = icmp slt i32 %50, 1000
  br i1 %51, label %52, label %94

52:                                               ; preds = %49
  %53 = load i32, i32* %3, align 4
  %54 = sext i32 %53 to i64
  %55 = getelementptr inbounds [1000 x i32], [1000 x i32]* %6, i64 0, i64 %54
  %56 = load i32, i32* %55, align 4
  %57 = icmp ne i32 %56, 0
  br i1 %57, label %58, label %71

58:                                               ; preds = %52
  %59 = load i32, i32* %3, align 4
  %60 = add nsw i32 %59, 1
  %61 = sext i32 %60 to i64
  %62 = getelementptr inbounds [1000 x i32], [1000 x i32]* %6, i64 0, i64 %61
  %63 = load i32, i32* %62, align 4
  %64 = icmp ne i32 %63, 0
  br i1 %64, label %65, label %71

65:                                               ; preds = %58
  %66 = load i32, i32* %3, align 4
  %67 = sext i32 %66 to i64
  %68 = getelementptr inbounds [1000 x i32], [1000 x i32]* %6, i64 0, i64 %67
  %69 = load i32, i32* %68, align 4
  %70 = call i32 (i8*, ...) @printf(i8* getelementptr inbounds ([4 x i8], [4 x i8]* @.str, i64 0, i64 0), i32 %69)
  br label %71

71:                                               ; preds = %65, %58, %52
  %72 = load i32, i32* %3, align 4
  %73 = sext i32 %72 to i64
  %74 = getelementptr inbounds [1000 x i32], [1000 x i32]* %6, i64 0, i64 %73
  %75 = load i32, i32* %74, align 4
  %76 = icmp ne i32 %75, 0
  br i1 %76, label %77, label %90

77:                                               ; preds = %71
  %78 = load i32, i32* %3, align 4
  %79 = add nsw i32 %78, 1
  %80 = sext i32 %79 to i64
  %81 = getelementptr inbounds [1000 x i32], [1000 x i32]* %6, i64 0, i64 %80
  %82 = load i32, i32* %81, align 4
  %83 = icmp eq i32 %82, 0
  br i1 %83, label %84, label %90

84:                                               ; preds = %77
  %85 = load i32, i32* %3, align 4
  %86 = sext i32 %85 to i64
  %87 = getelementptr inbounds [1000 x i32], [1000 x i32]* %6, i64 0, i64 %86
  %88 = load i32, i32* %87, align 4
  %89 = call i32 (i8*, ...) @printf(i8* getelementptr inbounds ([3 x i8], [3 x i8]* @.str.1, i64 0, i64 0), i32 %88)
  br label %90

90:                                               ; preds = %84, %77, %71
  br label %91

91:                                               ; preds = %90
  %92 = load i32, i32* %3, align 4
  %93 = add nsw i32 %92, 1
  store i32 %93, i32* %3, align 4
  br label %49

94:                                               ; preds = %49
  ret i32 0
}

; Function Attrs: argmemonly nounwind willreturn
declare void @llvm.memset.p0i8.i64(i8* nocapture writeonly, i8, i64, i1 immarg) #1

declare dso_local i32 @gets(...) #2

declare dso_local i32 @printf(i8*, ...) #2


!llvm.module.flags = !{!0}
!llvm.ident = !{!1}

!0 = !{i32 1, !"wchar_size", i32 4}
!1 = !{!"clang version 10.0.0-4ubuntu1 "}
