; ModuleID = 'source-C-CXX/27/1722.c'
source_filename = "source-C-CXX/27/1722.c"
target datalayout = "e-m:e-p270:32:32-p271:32:32-p272:64:64-i64:64-f80:128-n8:16:32:64-S128"
target triple = "x86_64-pc-linux-gnu"

@.str = private unnamed_addr constant [4 x i8] c"%d,\00", align 1
@.str.1 = private unnamed_addr constant [3 x i8] c"%d\00", align 1

; Function Attrs: nounwind sspstrong uwtable
define dso_local i32 @main() local_unnamed_addr #0 {
  %1 = alloca [10000 x i8], align 16
  %2 = alloca [1000 x i32], align 16
  %3 = getelementptr inbounds [10000 x i8], [10000 x i8]* %1, i64 0, i64 0
  call void @llvm.lifetime.start.p0i8(i64 10000, i8* nonnull %3) #5
  %4 = bitcast [1000 x i32]* %2 to i8*
  call void @llvm.lifetime.start.p0i8(i64 4000, i8* nonnull %4) #5
  call void @llvm.memset.p0i8.i64(i8* noundef nonnull align 16 dereferenceable(4000) %4, i8 0, i64 4000, i1 false)
  %5 = call i32 (i8*, ...) bitcast (i32 (...)* @gets to i32 (i8*, ...)*)(i8* nonnull %3) #5
  br label %6

6:                                                ; preds = %19, %0
  %7 = phi i32 [ 0, %0 ], [ %20, %19 ]
  %8 = phi i32 [ 0, %0 ], [ %21, %19 ]
  %9 = phi i8* [ %3, %0 ], [ %22, %19 ]
  %10 = load i8, i8* %9, align 1, !tbaa !5
  switch i8 %10, label %11 [
    i8 0, label %23
    i8 32, label %19
  ]

11:                                               ; preds = %6
  %12 = add nsw i32 %7, 1
  %13 = getelementptr inbounds i8, i8* %9, i64 1
  %14 = load i8, i8* %13, align 1, !tbaa !5
  switch i8 %14, label %19 [
    i8 32, label %15
    i8 0, label %15
  ]

15:                                               ; preds = %11, %11
  %16 = sext i32 %8 to i64
  %17 = getelementptr inbounds [1000 x i32], [1000 x i32]* %2, i64 0, i64 %16
  store i32 %12, i32* %17, align 4, !tbaa !8
  %18 = add nsw i32 %8, 1
  br label %19

19:                                               ; preds = %11, %6, %15
  %20 = phi i32 [ 0, %15 ], [ %7, %6 ], [ %12, %11 ]
  %21 = phi i32 [ %18, %15 ], [ %8, %6 ], [ %8, %11 ]
  %22 = getelementptr inbounds i8, i8* %9, i64 1
  br label %6, !llvm.loop !10

23:                                               ; preds = %6, %35
  %24 = phi i64 [ %28, %35 ], [ 0, %6 ]
  %25 = getelementptr inbounds [1000 x i32], [1000 x i32]* %2, i64 0, i64 %24
  %26 = load i32, i32* %25, align 4, !tbaa !8
  %27 = icmp eq i32 %26, 0
  %28 = add nuw nsw i64 %24, 1
  br i1 %27, label %35, label %29

29:                                               ; preds = %23
  %30 = getelementptr inbounds [1000 x i32], [1000 x i32]* %2, i64 0, i64 %28
  %31 = load i32, i32* %30, align 4, !tbaa !8
  %32 = icmp eq i32 %31, 0
  %33 = select i1 %32, i8* getelementptr inbounds ([3 x i8], [3 x i8]* @.str.1, i64 0, i64 0), i8* getelementptr inbounds ([4 x i8], [4 x i8]* @.str, i64 0, i64 0)
  %34 = call i32 (i8*, ...) @printf(i8* nonnull dereferenceable(1) %33, i32 %26)
  br label %35

35:                                               ; preds = %29, %23
  %36 = icmp eq i64 %28, 1000
  br i1 %36, label %37, label %23, !llvm.loop !12

37:                                               ; preds = %35
  call void @llvm.lifetime.end.p0i8(i64 4000, i8* nonnull %4) #5
  call void @llvm.lifetime.end.p0i8(i64 10000, i8* nonnull %3) #5
  ret i32 0
}

; Function Attrs: argmemonly mustprogress nofree nosync nounwind willreturn
declare void @llvm.lifetime.start.p0i8(i64 immarg, i8* nocapture) #1

; Function Attrs: argmemonly mustprogress nofree nounwind willreturn writeonly
declare void @llvm.memset.p0i8.i64(i8* nocapture writeonly, i8, i64, i1 immarg) #2

declare i32 @gets(...) local_unnamed_addr #3

; Function Attrs: nofree nounwind
declare noundef i32 @printf(i8* nocapture noundef readonly, ...) local_unnamed_addr #4

; Function Attrs: argmemonly mustprogress nofree nosync nounwind willreturn
declare void @llvm.lifetime.end.p0i8(i64 immarg, i8* nocapture) #1


!llvm.module.flags = !{!0, !1, !2, !3}
!llvm.ident = !{!4}

!0 = !{i32 1, !"wchar_size", i32 4}
!1 = !{i32 7, !"PIC Level", i32 2}
!2 = !{i32 7, !"PIE Level", i32 2}
!3 = !{i32 7, !"uwtable", i32 1}
!4 = !{!"clang version 13.0.0"}
!5 = !{!6, !6, i64 0}
!6 = !{!"omnipotent char", !7, i64 0}
!7 = !{!"Simple C/C++ TBAA"}
!8 = !{!9, !9, i64 0}
!9 = !{!"int", !6, i64 0}
!10 = distinct !{!10, !11}
!11 = !{!"llvm.loop.mustprogress"}
!12 = distinct !{!12, !11}
